target datalayout = "e-m:e-p270:32:32-p271:32:32-p272:64:64-i64:64-i128:128-f80:128-n8:16:32:64-S128"
target triple = "x86_64-pc-linux-gnu"

%"class.base::BasicStringPiece.0" = type { ptr, i64 }

; Function Attrs: mustprogress nounwind uwtable
define weak_odr noundef zeroext i16 @_ZNK4base16BasicStringPieceINSt7__cxx1112basic_stringItNS_20string16_char_traitsESaItEEEEixEm(ptr noundef nonnull align 8 dereferenceable(16) %0, i64 noundef %1) #0 comdat align 2 {
  %3 = alloca ptr, align 8
  %4 = alloca i64, align 8
  store ptr %0, ptr %3, align 8, !tbaa !43
  store i64 %1, ptr %4, align 8, !tbaa !19
  %5 = load ptr, ptr %3, align 8
  %6 = getelementptr inbounds nuw %"class.base::BasicStringPiece.0", ptr %5, i32 0, i32 0
  %7 = load ptr, ptr %6, align 8, !tbaa !45
  %8 = load i64, ptr %4, align 8, !tbaa !19
  %9 = getelementptr inbounds nuw i16, ptr %7, i64 %8
  %10 = load i16, ptr %9, align 2, !tbaa !60
  ret i16 %10
}

; Function Attrs: mustprogress nounwind uwtable
define weak_odr noundef ptr @_ZNK4base16BasicStringPieceINSt7__cxx1112basic_stringItNS_20string16_char_traitsESaItEEEE4dataEv(ptr noundef nonnull align 8 dereferenceable(16) %0) #0 comdat align 2 {
  %2 = alloca ptr, align 8
  store ptr %0, ptr %2, align 8, !tbaa !43
  %3 = load ptr, ptr %2, align 8
  %4 = getelementptr inbounds nuw %"class.base::BasicStringPiece.0", ptr %3, i32 0, i32 0
  %5 = load ptr, ptr %4, align 8, !tbaa !45
  ret ptr %5
}

; Function Attrs: inlinehint mustprogress nounwind uwtable
define linkonce_odr noundef nonnull align 8 dereferenceable(8) ptr @_ZSt3minImERKT_S2_S2_(ptr noundef nonnull align 8 dereferenceable(8) %0, ptr noundef nonnull align 8 dereferenceable(8) %1) #7 comdat {
  %3 = alloca ptr, align 8
  %4 = alloca ptr, align 8
  %5 = alloca ptr, align 8
  store ptr %0, ptr %4, align 8, !tbaa !85
  store ptr %1, ptr %5, align 8, !tbaa !85
  %6 = load ptr, ptr %5, align 8, !tbaa !85
  %7 = load i64, ptr %6, align 8, !tbaa !19
  %8 = load ptr, ptr %4, align 8, !tbaa !85
  %9 = load i64, ptr %8, align 8, !tbaa !19
  %10 = icmp ult i64 %7, %9
  br i1 %10, label %11, label %13

11:                                               ; preds = %2
  %12 = load ptr, ptr %5, align 8, !tbaa !85
  store ptr %12, ptr %3, align 8
  br label %15

13:                                               ; preds = %2
  %14 = load ptr, ptr %4, align 8, !tbaa !85
  store ptr %14, ptr %3, align 8
  br label %15

15:                                               ; preds = %13, %11
  %16 = load ptr, ptr %3, align 8
  ret ptr %16
}

; Function Attrs: mustprogress nounwind uwtable
define weak_odr noundef i64 @_ZNK4base16BasicStringPieceINSt7__cxx1112basic_stringItNS_20string16_char_traitsESaItEEEE4sizeEv(ptr noundef nonnull align 8 dereferenceable(16) %0) #0 comdat align 2 {
  %2 = alloca ptr, align 8
  store ptr %0, ptr %2, align 8, !tbaa !43
  %3 = load ptr, ptr %2, align 8
  %4 = getelementptr inbounds nuw %"class.base::BasicStringPiece.0", ptr %3, i32 0, i32 1
  %5 = load i64, ptr %4, align 8, !tbaa !48
  ret i64 %5
}

; Function Attrs: mustprogress uwtable
define noundef i64 @_ZN4base8internal16find_last_not_ofERKNS_16BasicStringPieceINSt7__cxx1112basic_stringItNS_20string16_char_traitsESaItEEEEES9_m(ptr noundef nonnull align 8 dereferenceable(16) %0, ptr noundef nonnull align 8 dereferenceable(16) %1, i64 noundef %2) #1 {
  %4 = alloca i64, align 8
  %5 = alloca ptr, align 8
  %6 = alloca ptr, align 8
  %7 = alloca i64, align 8
  %8 = alloca i64, align 8
  %9 = alloca i64, align 8
  %10 = alloca i8, align 1
  %11 = alloca i64, align 8
  %12 = alloca i32, align 4
  store ptr %0, ptr %5, align 8, !tbaa !43
  store ptr %1, ptr %6, align 8, !tbaa !43
  store i64 %2, ptr %7, align 8, !tbaa !19
  %13 = load ptr, ptr %5, align 8, !tbaa !43
  %14 = call noundef i64 @_ZNK4base16BasicStringPieceINSt7__cxx1112basic_stringItNS_20string16_char_traitsESaItEEEE4sizeEv(ptr noundef nonnull align 8 dereferenceable(16) %13)
  %15 = icmp eq i64 %14, 0
  br i1 %15, label %16, label %17

16:                                               ; preds = %3
  store i64 -1, ptr %4, align 8
  br label %67

17:                                               ; preds = %3
  call void @llvm.lifetime.start.p0(i64 8, ptr %8) #14
  call void @llvm.lifetime.start.p0(i64 8, ptr %9) #14
  %18 = load ptr, ptr %5, align 8, !tbaa !43
  %19 = call noundef i64 @_ZNK4base16BasicStringPieceINSt7__cxx1112basic_stringItNS_20string16_char_traitsESaItEEEE4sizeEv(ptr noundef nonnull align 8 dereferenceable(16) %18)
  %20 = sub i64 %19, 1
  store i64 %20, ptr %9, align 8, !tbaa !19
  %21 = call noundef nonnull align 8 dereferenceable(8) ptr @_ZSt3minImERKT_S2_S2_(ptr noundef nonnull align 8 dereferenceable(8) %7, ptr noundef nonnull align 8 dereferenceable(8) %9)
  %22 = load i64, ptr %21, align 8, !tbaa !19
  call void @llvm.lifetime.end.p0(i64 8, ptr %9) #14
  store i64 %22, ptr %8, align 8, !tbaa !19
  br label %23

23:                                               ; preds = %61, %17
  call void @llvm.lifetime.start.p0(i64 1, ptr %10) #14
  store i8 0, ptr %10, align 1, !tbaa !34
  call void @llvm.lifetime.start.p0(i64 8, ptr %11) #14
  store i64 0, ptr %11, align 8, !tbaa !19
  br label %24

24:                                               ; preds = %44, %23
  %25 = load i64, ptr %11, align 8, !tbaa !19
  %26 = load ptr, ptr %6, align 8, !tbaa !43
  %27 = call noundef i64 @_ZNK4base16BasicStringPieceINSt7__cxx1112basic_stringItNS_20string16_char_traitsESaItEEEE4sizeEv(ptr noundef nonnull align 8 dereferenceable(16) %26)
  %28 = icmp ult i64 %25, %27
  br i1 %28, label %30, label %29

29:                                               ; preds = %24
  store i32 5, ptr %12, align 4
  br label %47

30:                                               ; preds = %24
  %31 = load ptr, ptr %5, align 8, !tbaa !43
  %32 = call noundef ptr @_ZNK4base16BasicStringPieceINSt7__cxx1112basic_stringItNS_20string16_char_traitsESaItEEEE4dataEv(ptr noundef nonnull align 8 dereferenceable(16) %31)
  %33 = load i64, ptr %8, align 8, !tbaa !19
  %34 = getelementptr inbounds nuw i16, ptr %32, i64 %33
  %35 = load i16, ptr %34, align 2, !tbaa !60
  %36 = zext i16 %35 to i32
  %37 = load ptr, ptr %6, align 8, !tbaa !43
  %38 = load i64, ptr %11, align 8, !tbaa !19
  %39 = call noundef zeroext i16 @_ZNK4base16BasicStringPieceINSt7__cxx1112basic_stringItNS_20string16_char_traitsESaItEEEEixEm(ptr noundef nonnull align 8 dereferenceable(16) %37, i64 noundef %38)
  %40 = zext i16 %39 to i32
  %41 = icmp eq i32 %36, %40
  br i1 %41, label %42, label %43

42:                                               ; preds = %30
  store i8 1, ptr %10, align 1, !tbaa !34
  store i32 5, ptr %12, align 4
  br label %47

43:                                               ; preds = %30
  br label %44

44:                                               ; preds = %43
  %45 = load i64, ptr %11, align 8, !tbaa !19
  %46 = add i64 %45, 1
  store i64 %46, ptr %11, align 8, !tbaa !19
  br label %24, !llvm.loop !72

47:                                               ; preds = %42, %29
  call void @llvm.lifetime.end.p0(i64 8, ptr %11) #14
  br label %48

48:                                               ; preds = %47
  %49 = load i8, ptr %10, align 1, !tbaa !34, !range !36, !noundef !37
  %50 = trunc i8 %49 to i1
  br i1 %50, label %53, label %51

51:                                               ; preds = %48
  %52 = load i64, ptr %8, align 8, !tbaa !19
  store i64 %52, ptr %4, align 8
  store i32 1, ptr %12, align 4
  br label %58

53:                                               ; preds = %48
  %54 = load i64, ptr %8, align 8, !tbaa !19
  %55 = icmp eq i64 %54, 0
  br i1 %55, label %56, label %57

56:                                               ; preds = %53
  store i32 2, ptr %12, align 4
  br label %58

57:                                               ; preds = %53
  store i32 0, ptr %12, align 4
  br label %58

58:                                               ; preds = %57, %56, %51
  call void @llvm.lifetime.end.p0(i64 1, ptr %10) #14
  %59 = load i32, ptr %12, align 4
  switch i32 %59, label %64 [
    i32 0, label %60
  ]

60:                                               ; preds = %58
  br label %61

61:                                               ; preds = %60
  %62 = load i64, ptr %8, align 8, !tbaa !19
  %63 = add i64 %62, -1
  store i64 %63, ptr %8, align 8, !tbaa !19
  br label %23, !llvm.loop !73

64:                                               ; preds = %58
  call void @llvm.lifetime.end.p0(i64 8, ptr %8) #14
  %65 = load i32, ptr %12, align 4
  switch i32 %65, label %69 [
    i32 1, label %67
    i32 2, label %66
  ]

66:                                               ; preds = %64
  store i64 -1, ptr %4, align 8
  br label %67

67:                                               ; preds = %66, %64, %16
  %68 = load i64, ptr %4, align 8
  ret i64 %68

69:                                               ; preds = %64
  unreachable
}