; Function Attrs: mustprogress nofree norecurse nosync nounwind willreturn memory(read, inaccessiblemem: none) uwtable
define noundef i64 @_ZN4base8internal16find_last_not_ofERKNS_16BasicStringPieceINSt7__cxx1112basic_stringItNS_20string16_char_traitsESaItEEEEES9_m(ptr noundef nonnull readonly align 8 captures(none) dereferenceable(16) %0, ptr noundef nonnull readonly align 8 captures(none) dereferenceable(16) %1, i64 noundef %2) local_unnamed_addr #5 {
  %4 = getelementptr inbounds nuw i8, ptr %0, i64 8
  %5 = load i64, ptr %4, align 8, !tbaa !38
  %6 = icmp eq i64 %5, 0
  br i1 %6, label %.critedge.thread, label %7

7:                                                ; preds = %3
  %8 = add i64 %5, -1
  %.sroa.speculated = tail call i64 @llvm.umin.i64(i64 %8, i64 %2)
  %9 = getelementptr inbounds nuw i8, ptr %1, i64 8
  %10 = load i64, ptr %9, align 8, !tbaa !38
  %.not2831.not = icmp eq i64 %10, 0
  br i1 %.not2831.not, label %.critedge.thread, label %.lr.ph.lr.ph

.lr.ph.lr.ph:                                     ; preds = %7
  %11 = load ptr, ptr %0, align 8, !tbaa !35
  %12 = load ptr, ptr %1, align 8, !tbaa !35
  br label %.lr.ph.us

.lr.ph.us:                                        ; preds = %21, %.lr.ph.lr.ph
  %.01735.us = phi i64 [ %.sroa.speculated, %.lr.ph.lr.ph ], [ %22, %21 ]
  %13 = getelementptr inbounds nuw i16, ptr %11, i64 %.01735.us
  %14 = load i16, ptr %13, align 2, !tbaa !44
  br label %17

15:                                               ; preds = %17
  %16 = add nuw i64 %.01532.us, 1
  %exitcond.not = icmp eq i64 %16, %10
  br i1 %exitcond.not, label %.critedge.thread, label %17, !llvm.loop !58

17:                                               ; preds = %15, %.lr.ph.us
  %.01532.us = phi i64 [ 0, %.lr.ph.us ], [ %16, %15 ]
  %18 = getelementptr inbounds nuw i16, ptr %12, i64 %.01532.us
  %19 = load i16, ptr %18, align 2, !tbaa !44
  %20 = icmp eq i16 %14, %19
  br i1 %20, label %.critedge.us, label %15

.critedge.us:                                     ; preds = %17
  %.not.us = icmp eq i64 %.01735.us, 0
  br i1 %.not.us, label %.critedge.thread, label %21

21:                                               ; preds = %.critedge.us
  %22 = add i64 %.01735.us, -1
  br label %.lr.ph.us

.critedge.thread:                                 ; preds = %.critedge.us, %15, %7, %3
  %.018 = phi i64 [ -1, %3 ], [ %.sroa.speculated, %7 ], [ %.01735.us, %15 ], [ -1, %.critedge.us ]
  ret i64 %.018
}